Certificate:
    Data:
        Version: 3 (0x2)
        Serial Number:
            11:f1:be:36:bc:64:84:25:ee:cd:38:33:34:a1:47:70
        Signature Algorithm: sha256WithRSAEncryption
        Issuer: CN=Easy-RSA CA
        Validity
            Not Before: Sep  7 23:36:03 2021 GMT
            Not After : Dec 11 23:36:03 2023 GMT
        Subject: CN=nicorodriguez.duckdns.org
        Subject Public Key Info:
            Public Key Algorithm: rsaEncryption
                RSA Public-Key: (2048 bit)
                Modulus:
                    00:c8:8a:44:ce:db:d1:5e:bf:7b:0c:8b:e3:25:cc:
                    2f:77:a6:cd:88:5c:08:a5:b7:51:45:e1:73:c9:63:
                    90:e8:7c:e2:88:09:a1:cd:14:1e:56:62:8b:0c:aa:
                    36:91:43:bf:14:70:a5:e6:10:e3:ba:30:5e:48:d3:
                    81:15:c5:86:10:dc:bf:32:16:79:a9:3a:69:eb:93:
                    48:35:10:b1:3e:a8:d1:95:33:a4:b2:86:60:39:dc:
                    3f:67:c2:df:c3:83:3c:6a:9e:14:40:bc:f4:9f:44:
                    4d:3a:0d:5a:ca:cb:d6:d6:09:e6:40:39:59:d7:e5:
                    96:0e:55:6d:bc:f5:31:1c:d9:5d:95:bf:86:6b:b7:
                    f3:4b:34:5a:f1:a0:b2:ae:f0:ed:2a:ea:71:2c:a7:
                    e8:d8:d6:76:79:32:de:47:f3:c6:e3:82:79:4f:4c:
                    6c:42:06:11:f9:26:bd:68:51:6f:e6:2d:24:d8:73:
                    94:04:c0:bf:bf:7d:43:f9:f3:5d:7e:1d:e7:08:20:
                    de:15:a7:e4:49:07:69:0f:da:07:fb:8b:c8:88:7d:
                    da:fb:db:d4:df:2c:80:d2:41:58:0a:9f:a4:ac:83:
                    eb:6c:d5:90:74:75:24:96:7f:dc:a8:e2:2b:d2:cd:
                    aa:2e:3b:51:2b:7e:2e:58:a1:a2:06:80:99:aa:7f:
                    f5:17
                Exponent: 65537 (0x10001)
        X509v3 extensions:
            X509v3 Basic Constraints: 
                CA:FALSE
            X509v3 Subject Key Identifier: 
                37:79:BF:3E:D3:AA:E1:BA:62:DE:7A:B7:27:54:DF:E0:D2:67:C6:D9
            X509v3 Authority Key Identifier: 
                keyid:44:50:D1:0E:23:69:88:9B:BB:8F:2C:17:74:21:7F:9C:9A:D6:C5:9C
                DirName:/CN=Easy-RSA CA
                serial:68:6B:C5:92:77:4B:5E:D3:9E:AB:62:31:8E:74:21:8B:CC:28:9D:E0

            X509v3 Extended Key Usage: 
                TLS Web Server Authentication
            X509v3 Key Usage: 
                Digital Signature, Key Encipherment
            X509v3 Subject Alternative Name: 
                DNS:nicorodriguez.duckdns.org
    Signature Algorithm: sha256WithRSAEncryption
         9b:70:cf:12:93:0a:73:ff:20:e9:ef:ef:3d:0a:15:aa:69:d3:
         ff:f8:ac:66:ae:45:e7:5a:ea:26:32:ea:e6:9e:16:5c:e3:a0:
         82:fd:3c:1b:b7:5f:23:40:00:7b:48:d5:58:ed:9d:ff:ff:92:
         08:4f:e9:f6:11:25:ca:38:aa:af:df:1c:8b:ab:a5:bf:2d:31:
         a3:bd:43:e9:6d:1a:5d:dc:90:50:b0:c6:c0:3e:a8:30:b4:32:
         e1:5e:c9:1c:d2:b5:03:aa:6e:f0:b8:79:60:9a:f4:a7:f1:7e:
         1e:bb:ab:b8:ad:2a:4b:08:36:9a:08:a8:e0:86:66:25:98:4b:
         64:b1:66:ad:e3:ca:aa:a7:c1:9f:02:5c:31:c4:d5:21:27:b3:
         17:57:a2:bb:a5:cd:61:5a:1c:31:c7:55:f7:38:91:92:7a:35:
         ad:7a:5c:29:b7:d6:a4:9f:02:93:75:58:29:81:28:a2:73:87:
         6b:56:ca:92:88:2e:4f:58:56:da:de:fe:41:6d:7b:4c:15:3e:
         66:21:62:2e:f4:c8:6f:78:ec:cf:70:71:fd:f6:b1:d1:68:ed:
         99:e8:8c:38:37:48:9a:bc:9d:d0:12:70:40:15:3f:c0:16:cd:
         fa:89:39:c3:ec:f4:62:78:aa:00:d1:28:05:f8:91:61:96:74:
         06:e7:39:c1
-----BEGIN CERTIFICATE-----
MIIDjTCCAnWgAwIBAgIQEfG+NrxkhCXuzTgzNKFHcDANBgkqhkiG9w0BAQsFADAW
MRQwEgYDVQQDDAtFYXN5LVJTQSBDQTAeFw0yMTA5MDcyMzM2MDNaFw0yMzEyMTEy
MzM2MDNaMCQxIjAgBgNVBAMMGW5pY29yb2RyaWd1ZXouZHVja2Rucy5vcmcwggEi
MA0GCSqGSIb3DQEBAQUAA4IBDwAwggEKAoIBAQDIikTO29Fev3sMi+MlzC93ps2I
XAilt1FF4XPJY5DofOKICaHNFB5WYosMqjaRQ78UcKXmEOO6MF5I04EVxYYQ3L8y
FnmpOmnrk0g1ELE+qNGVM6SyhmA53D9nwt/DgzxqnhRAvPSfRE06DVrKy9bWCeZA
OVnX5ZYOVW289TEc2V2Vv4Zrt/NLNFrxoLKu8O0q6nEsp+jY1nZ5Mt5H88bjgnlP
TGxCBhH5Jr1oUW/mLSTYc5QEwL+/fUP5811+HecIIN4Vp+RJB2kP2gf7i8iIfdr7
29TfLIDSQVgKn6Ssg+ts1ZB0dSSWf9yo4ivSzaouO1Erfi5YoaIGgJmqf/UXAgMB
AAGjgcgwgcUwCQYDVR0TBAIwADAdBgNVHQ4EFgQUN3m/PtOq4bpi3nq3J1Tf4NJn
xtkwUQYDVR0jBEowSIAURFDRDiNpiJu7jywXdCF/nJrWxZyhGqQYMBYxFDASBgNV
BAMMC0Vhc3ktUlNBIENBghRoa8WSd0te056rYjGOdCGLzCid4DATBgNVHSUEDDAK
BggrBgEFBQcDATALBgNVHQ8EBAMCBaAwJAYDVR0RBB0wG4IZbmljb3JvZHJpZ3Vl
ei5kdWNrZG5zLm9yZzANBgkqhkiG9w0BAQsFAAOCAQEAm3DPEpMKc/8g6e/vPQoV
qmnT//isZq5F51rqJjLq5p4WXOOggv08G7dfI0AAe0jVWO2d//+SCE/p9hElyjiq
r98ci6ulvy0xo71D6W0aXdyQULDGwD6oMLQy4V7JHNK1A6pu8Lh5YJr0p/F+Hrur
uK0qSwg2mgio4IZmJZhLZLFmrePKqqfBnwJcMcTVISezF1eiu6XNYVocMcdV9ziR
kno1rXpcKbfWpJ8Ck3VYKYEoonOHa1bKkoguT1hW2t7+QW17TBU+ZiFiLvTIb3js
z3Bx/fax0WjtmeiMODdImryd0BJwQBU/wBbN+ok5w+z0YniqANEoBfiRYZZ0Buc5
wQ==
-----END CERTIFICATE-----
